target datalayout = "e-m:e-p270:32:32-p271:32:32-p272:64:64-i64:64-i128:128-f80:128-n8:16:32:64-S128"
target triple = "x86_64-pc-linux-gnu"

%"class.icu_77::UnicodeString" = type { %"class.icu_77::Replaceable", %"union.icu_77::UnicodeString::StackBufferOrFields" }
%"class.icu_77::Replaceable" = type { %"class.icu_77::UObject" }
%"class.icu_77::UObject" = type { ptr }
%"union.icu_77::UnicodeString::StackBufferOrFields" = type { %struct.anon.0, [32 x i8] }
%struct.anon.0 = type { i16, i32, i32, ptr }
%"class.icu_77::RuleBasedNumberFormat" = type { %"class.icu_77::NumberFormat.base", ptr, ptr, i32, ptr, %"class.icu_77::Locale", ptr, ptr, ptr, ptr, i32, i8, ptr, ptr, %"class.icu_77::UnicodeString", i8, i8, i8, ptr }
%"class.icu_77::NumberFormat.base" = type <{ %"class.icu_77::Format", i8, [3 x i8], i32, i32, i32, i32, i8, i8, [4 x i16], [2 x i8], i32 }>
%"class.icu_77::Format" = type { %"class.icu_77::UObject", ptr, ptr }
%"class.icu_77::Locale" = type <{ %"class.icu_77::UObject", [12 x i8], [6 x i8], [4 x i8], [2 x i8], i32, [4 x i8], ptr, [157 x i8], [3 x i8], ptr, i8, [7 x i8] }>
%struct.anon = type { i16, [27 x i16] }

@_ZTVN6icu_777UObjectE = available_externally unnamed_addr constant { [5 x ptr] } { [5 x ptr] [ptr null, ptr @_ZTIN6icu_777UObjectE, ptr @_ZN6icu_777UObjectD1Ev, ptr @_ZN6icu_777UObjectD0Ev, ptr @_ZNK6icu_777UObject17getDynamicClassIDEv] }, align 8

; Function Attrs: inlinehint mustprogress nounwind uwtable
define linkonce_odr void @_ZN6icu_777UObjectC2Ev(ptr noundef nonnull align 8 dereferenceable(8) %0) unnamed_addr #4 comdat align 2 {
  %2 = alloca ptr, align 8
  store ptr %0, ptr %2, align 8, !tbaa !225
  %3 = load ptr, ptr %2, align 8
  store ptr getelementptr inbounds inrange(-16, 24) ({ [5 x ptr] }, ptr @_ZTVN6icu_777UObjectE, i32 0, i32 0, i32 2), ptr %3, align 8, !tbaa !10
  ret void
}

; Function Attrs: inlinehint mustprogress nounwind uwtable
define linkonce_odr void @_ZN6icu_7711ReplaceableC2Ev(ptr noundef nonnull align 8 dereferenceable(8) %0) unnamed_addr #4 comdat align 2 {
  %2 = alloca ptr, align 8
  store ptr %0, ptr %2, align 8, !tbaa !223
  %3 = load ptr, ptr %2, align 8
  call void @_ZN6icu_777UObjectC2Ev(ptr noundef nonnull align 8 dereferenceable(8) %3) #14
  store ptr getelementptr inbounds inrange(-16, 88) ({ [13 x ptr] }, ptr @_ZTVN6icu_7711ReplaceableE, i32 0, i32 0, i32 2), ptr %3, align 8, !tbaa !10
  ret void
}

; Function Attrs: inlinehint mustprogress uwtable
define linkonce_odr void @_ZN6icu_7713UnicodeStringC2Ev(ptr noundef nonnull align 8 dereferenceable(64) %0) unnamed_addr #6 comdat align 2 {
  %2 = alloca ptr, align 8
  store ptr %0, ptr %2, align 8, !tbaa !76
  %3 = load ptr, ptr %2, align 8
  call void @_ZN6icu_7711ReplaceableC2Ev(ptr noundef nonnull align 8 dereferenceable(8) %3)
  store ptr getelementptr inbounds inrange(-16, 88) ({ [13 x ptr] }, ptr @_ZTVN6icu_7713UnicodeStringE, i32 0, i32 0, i32 2), ptr %3, align 8, !tbaa !10
  %4 = getelementptr inbounds nuw %"class.icu_77::UnicodeString", ptr %3, i32 0, i32 1
  %5 = getelementptr inbounds nuw %struct.anon, ptr %4, i32 0, i32 0
  store i16 2, ptr %5, align 8, !tbaa !39
  ret void
}

; Function Attrs: mustprogress uwtable
define void @_ZN6icu_7721RuleBasedNumberFormatC2ERKNS_13UnicodeStringES3_R11UParseErrorR10UErrorCode(ptr noundef nonnull align 8 dereferenceable(456) %0, ptr noundef nonnull align 8 dereferenceable(64) %1, ptr noundef nonnull align 8 dereferenceable(64) %2, ptr noundef nonnull align 4 dereferenceable(72) %3, ptr noundef nonnull align 4 dereferenceable(4) %4) unnamed_addr #2 align 2 personality ptr @__gxx_personality_v0 {
  %6 = alloca ptr, align 8
  %7 = alloca ptr, align 8
  %8 = alloca ptr, align 8
  %9 = alloca ptr, align 8
  %10 = alloca ptr, align 8
  %11 = alloca ptr, align 8
  %12 = alloca i32, align 4
  %13 = alloca ptr, align 8
  store ptr %0, ptr %6, align 8, !tbaa !3
  store ptr %1, ptr %7, align 8, !tbaa !76
  store ptr %2, ptr %8, align 8, !tbaa !76
  store ptr %3, ptr %9, align 8, !tbaa !78
  store ptr %4, ptr %10, align 8, !tbaa !51
  %14 = load ptr, ptr %6, align 8
  call void @_ZN6icu_7712NumberFormatC2Ev(ptr noundef nonnull align 8 dereferenceable(60) %14)
  store ptr getelementptr inbounds inrange(-16, 408) ({ [53 x ptr] }, ptr @_ZTVN6icu_7721RuleBasedNumberFormatE, i32 0, i32 0, i32 2), ptr %14, align 8, !tbaa !10
  %15 = getelementptr inbounds nuw %"class.icu_77::RuleBasedNumberFormat", ptr %14, i32 0, i32 1
  store ptr null, ptr %15, align 8, !tbaa !87
  %16 = getelementptr inbounds nuw %"class.icu_77::RuleBasedNumberFormat", ptr %14, i32 0, i32 2
  store ptr null, ptr %16, align 8, !tbaa !104
  %17 = getelementptr inbounds nuw %"class.icu_77::RuleBasedNumberFormat", ptr %14, i32 0, i32 3
  store i32 0, ptr %17, align 8, !tbaa !105
  %18 = getelementptr inbounds nuw %"class.icu_77::RuleBasedNumberFormat", ptr %14, i32 0, i32 4
  store ptr null, ptr %18, align 8, !tbaa !106
  %19 = getelementptr inbounds nuw %"class.icu_77::RuleBasedNumberFormat", ptr %14, i32 0, i32 5
  %20 = invoke noundef nonnull align 8 dereferenceable(217) ptr @_ZN6icu_776Locale10getDefaultEv()
          to label %21 unwind label %47

21:                                               ; preds = %5
  invoke void @_ZN6icu_776LocaleC1ERKS0_(ptr noundef nonnull align 8 dereferenceable(217) %19, ptr noundef nonnull align 8 dereferenceable(217) %20)
          to label %22 unwind label %47

22:                                               ; preds = %21
  %23 = getelementptr inbounds nuw %"class.icu_77::RuleBasedNumberFormat", ptr %14, i32 0, i32 6
  store ptr null, ptr %23, align 8, !tbaa !107
  %24 = getelementptr inbounds nuw %"class.icu_77::RuleBasedNumberFormat", ptr %14, i32 0, i32 7
  store ptr null, ptr %24, align 8, !tbaa !108
  %25 = getelementptr inbounds nuw %"class.icu_77::RuleBasedNumberFormat", ptr %14, i32 0, i32 8
  store ptr null, ptr %25, align 8, !tbaa !109
  %26 = getelementptr inbounds nuw %"class.icu_77::RuleBasedNumberFormat", ptr %14, i32 0, i32 9
  store ptr null, ptr %26, align 8, !tbaa !110
  %27 = getelementptr inbounds nuw %"class.icu_77::RuleBasedNumberFormat", ptr %14, i32 0, i32 10
  store i32 7, ptr %27, align 8, !tbaa !111
  %28 = getelementptr inbounds nuw %"class.icu_77::RuleBasedNumberFormat", ptr %14, i32 0, i32 11
  store i8 0, ptr %28, align 4, !tbaa !112
  %29 = getelementptr inbounds nuw %"class.icu_77::RuleBasedNumberFormat", ptr %14, i32 0, i32 12
  store ptr null, ptr %29, align 8, !tbaa !113
  %30 = getelementptr inbounds nuw %"class.icu_77::RuleBasedNumberFormat", ptr %14, i32 0, i32 13
  store ptr null, ptr %30, align 8, !tbaa !114
  %31 = getelementptr inbounds nuw %"class.icu_77::RuleBasedNumberFormat", ptr %14, i32 0, i32 14
  invoke void @_ZN6icu_7713UnicodeStringC2Ev(ptr noundef nonnull align 8 dereferenceable(64) %31)
          to label %32 unwind label %51

32:                                               ; preds = %22
  %33 = getelementptr inbounds nuw %"class.icu_77::RuleBasedNumberFormat", ptr %14, i32 0, i32 15
  store i8 0, ptr %33, align 8, !tbaa !115
  %34 = getelementptr inbounds nuw %"class.icu_77::RuleBasedNumberFormat", ptr %14, i32 0, i32 16
  store i8 0, ptr %34, align 1, !tbaa !116
  %35 = getelementptr inbounds nuw %"class.icu_77::RuleBasedNumberFormat", ptr %14, i32 0, i32 17
  store i8 0, ptr %35, align 2, !tbaa !117
  %36 = getelementptr inbounds nuw %"class.icu_77::RuleBasedNumberFormat", ptr %14, i32 0, i32 18
  store ptr null, ptr %36, align 8, !tbaa !118
  call void @llvm.lifetime.start.p0(i64 8, ptr %13) #14
  %37 = load ptr, ptr %8, align 8, !tbaa !76
  %38 = load ptr, ptr %9, align 8, !tbaa !78
  %39 = load ptr, ptr %10, align 8, !tbaa !51
  %40 = invoke noundef ptr @_ZN6icu_7722StringLocalizationInfo6createERKNS_13UnicodeStringER11UParseErrorR10UErrorCode(ptr noundef nonnull align 8 dereferenceable(64) %37, ptr noundef nonnull align 4 dereferenceable(72) %38, ptr noundef nonnull align 4 dereferenceable(4) %39)
          to label %41 unwind label %55

41:                                               ; preds = %32
  store ptr %40, ptr %13, align 8, !tbaa !8
  %42 = load ptr, ptr %7, align 8, !tbaa !76
  %43 = load ptr, ptr %13, align 8, !tbaa !8
  %44 = load ptr, ptr %9, align 8, !tbaa !78
  %45 = load ptr, ptr %10, align 8, !tbaa !51
  invoke void @_ZN6icu_7721RuleBasedNumberFormat4initERKNS_13UnicodeStringEPNS_16LocalizationInfoER11UParseErrorR10UErrorCode(ptr noundef nonnull align 8 dereferenceable(456) %14, ptr noundef nonnull align 8 dereferenceable(64) %42, ptr noundef %43, ptr noundef nonnull align 4 dereferenceable(72) %44, ptr noundef nonnull align 4 dereferenceable(4) %45)
          to label %46 unwind label %55

46:                                               ; preds = %41
  call void @llvm.lifetime.end.p0(i64 8, ptr %13) #14
  ret void

47:                                               ; preds = %21, %5
  %48 = landingpad { ptr, i32 }
          cleanup
  %49 = extractvalue { ptr, i32 } %48, 0
  store ptr %49, ptr %11, align 8
  %50 = extractvalue { ptr, i32 } %48, 1
  store i32 %50, ptr %12, align 4
  br label %60

51:                                               ; preds = %22
  %52 = landingpad { ptr, i32 }
          cleanup
  %53 = extractvalue { ptr, i32 } %52, 0
  store ptr %53, ptr %11, align 8
  %54 = extractvalue { ptr, i32 } %52, 1
  store i32 %54, ptr %12, align 4
  br label %59

55:                                               ; preds = %41, %32
  %56 = landingpad { ptr, i32 }
          cleanup
  %57 = extractvalue { ptr, i32 } %56, 0
  store ptr %57, ptr %11, align 8
  %58 = extractvalue { ptr, i32 } %56, 1
  store i32 %58, ptr %12, align 4
  call void @llvm.lifetime.end.p0(i64 8, ptr %13) #14
  call void @_ZN6icu_7713UnicodeStringD1Ev(ptr noundef nonnull align 8 dereferenceable(64) %31) #14
  br label %59

59:                                               ; preds = %55, %51
  call void @_ZN6icu_776LocaleD1Ev(ptr noundef nonnull align 8 dereferenceable(217) %19) #14
  br label %60

60:                                               ; preds = %59, %47
  call void @_ZN6icu_7712NumberFormatD2Ev(ptr noundef nonnull align 8 dereferenceable(60) %14) #14
  br label %61

61:                                               ; preds = %60
  %62 = load ptr, ptr %11, align 8
  %63 = load i32, ptr %12, align 4
  %64 = insertvalue { ptr, i32 } poison, ptr %62, 0
  %65 = insertvalue { ptr, i32 } %64, i32 %63, 1
  resume { ptr, i32 } %65
}