; Function Attrs: mustprogress uwtable
define void @_ZN6icu_7721RuleBasedNumberFormatC2ERKNS_13UnicodeStringES3_R11UParseErrorR10UErrorCode(ptr noundef nonnull align 8 dereferenceable(456) %0, ptr noundef nonnull align 8 dereferenceable(64) %1, ptr noundef nonnull align 8 dereferenceable(64) %2, ptr noundef nonnull align 4 dereferenceable(72) %3, ptr noundef nonnull align 4 dereferenceable(4) %4) unnamed_addr #3 align 2 personality ptr @__gxx_personality_v0 {
  tail call void @_ZN6icu_7712NumberFormatC2Ev(ptr noundef nonnull align 8 dereferenceable(60) %0)
  store ptr getelementptr inbounds nuw inrange(-16, 408) (i8, ptr @_ZTVN6icu_7721RuleBasedNumberFormatE, i64 16), ptr %0, align 8, !tbaa !3
  %6 = getelementptr inbounds nuw i8, ptr %0, i64 64
  %7 = getelementptr inbounds nuw i8, ptr %0, i64 88
  store ptr null, ptr %7, align 8, !tbaa !64
  %8 = getelementptr inbounds nuw i8, ptr %0, i64 96
  tail call void @llvm.memset.p0.i64(ptr noundef nonnull align 8 dereferenceable(20) %6, i8 0, i64 20, i1 false)
  %9 = invoke noundef nonnull align 8 dereferenceable(217) ptr @_ZN6icu_776Locale10getDefaultEv()
          to label %10 unwind label %25

10:                                               ; preds = %5
  invoke void @_ZN6icu_776LocaleC1ERKS0_(ptr noundef nonnull align 8 dereferenceable(217) %8, ptr noundef nonnull align 8 dereferenceable(217) %9)
          to label %11 unwind label %25

11:                                               ; preds = %10
  %12 = getelementptr inbounds nuw i8, ptr %0, i64 320
  %13 = getelementptr inbounds nuw i8, ptr %0, i64 352
  tail call void @llvm.memset.p0.i64(ptr noundef nonnull align 8 dereferenceable(32) %12, i8 0, i64 32, i1 false)
  store i32 7, ptr %13, align 8, !tbaa !84
  %14 = getelementptr inbounds nuw i8, ptr %0, i64 356
  store i8 0, ptr %14, align 4, !tbaa !85
  %15 = getelementptr inbounds nuw i8, ptr %0, i64 360
  %16 = getelementptr inbounds nuw i8, ptr %0, i64 376
  tail call void @llvm.memset.p0.i64(ptr noundef nonnull align 8 dereferenceable(16) %15, i8 0, i64 16, i1 false)
  store ptr getelementptr inbounds nuw inrange(-16, 88) (i8, ptr @_ZTVN6icu_7713UnicodeStringE, i64 16), ptr %16, align 8, !tbaa !3
  %17 = getelementptr inbounds nuw i8, ptr %0, i64 384
  store i16 2, ptr %17, align 8, !tbaa !55
  %18 = getelementptr inbounds nuw i8, ptr %0, i64 440
  store i8 0, ptr %18, align 8, !tbaa !86
  %19 = getelementptr inbounds nuw i8, ptr %0, i64 441
  store i8 0, ptr %19, align 1, !tbaa !87
  %20 = getelementptr inbounds nuw i8, ptr %0, i64 442
  store i8 0, ptr %20, align 2, !tbaa !88
  %21 = getelementptr inbounds nuw i8, ptr %0, i64 448
  store ptr null, ptr %21, align 8, !tbaa !89
  %22 = invoke noundef ptr @_ZN6icu_7722StringLocalizationInfo6createERKNS_13UnicodeStringER11UParseErrorR10UErrorCode(ptr noundef nonnull align 8 dereferenceable(64) %2, ptr noundef nonnull align 4 dereferenceable(72) %3, ptr noundef nonnull align 4 dereferenceable(4) %4)
          to label %23 unwind label %27

23:                                               ; preds = %11
  invoke void @_ZN6icu_7721RuleBasedNumberFormat4initERKNS_13UnicodeStringEPNS_16LocalizationInfoER11UParseErrorR10UErrorCode(ptr noundef nonnull align 8 dereferenceable(456) %0, ptr noundef nonnull align 8 dereferenceable(64) %1, ptr noundef %22, ptr noundef nonnull align 4 dereferenceable(72) %3, ptr noundef nonnull align 4 dereferenceable(4) %4)
          to label %24 unwind label %27

24:                                               ; preds = %23
  ret void

25:                                               ; preds = %10, %5
  %26 = landingpad { ptr, i32 }
          cleanup
  br label %29

27:                                               ; preds = %23, %11
  %28 = landingpad { ptr, i32 }
          cleanup
  tail call void @_ZN6icu_7713UnicodeStringD1Ev(ptr noundef nonnull align 8 dereferenceable(64) %16) #21
  tail call void @_ZN6icu_776LocaleD1Ev(ptr noundef nonnull align 8 dereferenceable(217) %8) #21
  br label %29

29:                                               ; preds = %27, %25
  %.pn.pn = phi { ptr, i32 } [ %28, %27 ], [ %26, %25 ]
  tail call void @_ZN6icu_7712NumberFormatD2Ev(ptr noundef nonnull align 8 dereferenceable(60) %0) #21
  resume { ptr, i32 } %.pn.pn
}